target datalayout = "e-m:e-p270:32:32-p271:32:32-p272:64:64-i64:64-i128:128-f80:128-n8:16:32:64-S128"
target triple = "x86_64-pc-linux-gnu"

%"class.cv::bioinspired::RetinaFilter" = type <{ i8, i8, [2 x i8], i32, i32, [4 x i8], %"class.std::valarray", %"class.std::valarray", %"class.cv::bioinspired::BasicRetinaFilter", %"class.cv::bioinspired::ParvoRetinaFilter", %"class.cv::bioinspired::MagnoRetinaFilter", %"class.cv::bioinspired::RetinaColor", ptr, i8, i8, i8, i8, float, i8, [7 x i8] }>
%"class.std::valarray" = type { i64, ptr }
%"class.cv::bioinspired::BasicRetinaFilter" = type { %"class.cv::bioinspired::TemplateBuffer", %"class.std::valarray", i32, i32, %"class.std::valarray", %"class.std::valarray", %"class.std::valarray", float, float, float, float, float, float, float, float }
%"class.cv::bioinspired::TemplateBuffer" = type { ptr, %"class.std::valarray", i64, i64, i64, i64, i64 }
%"class.cv::bioinspired::ParvoRetinaFilter" = type { ptr, %"class.cv::bioinspired::BasicRetinaFilter", %"class.std::valarray", %"class.std::valarray", %"class.std::valarray", %"class.std::valarray", %"class.std::valarray", %"class.std::valarray", %"class.std::valarray", ptr, ptr }
%"class.cv::bioinspired::MagnoRetinaFilter" = type <{ ptr, %"class.cv::bioinspired::BasicRetinaFilter", %"class.std::valarray", %"class.std::valarray", %"class.std::valarray", %"class.std::valarray", %"class.std::valarray", %"class.std::valarray", %"class.std::valarray", %"class.std::valarray", ptr, ptr, float, [4 x i8] }>
%"class.cv::bioinspired::RetinaColor" = type <{ ptr, %"class.cv::bioinspired::BasicRetinaFilter", i32, i8, [3 x i8], float, [4 x i8], ptr, ptr, %"class.std::valarray.0", %"class.std::valarray", %"class.std::valarray", %"class.std::valarray", %"class.std::valarray", %"class.std::valarray", %"class.std::valarray", %"class.std::valarray", float, float, float, i8, [3 x i8] }>
%"class.std::valarray.0" = type { i64, ptr }

; Function Attrs: inlinehint mustprogress nounwind uwtable
define linkonce_odr hidden noundef i32 @_ZN2cv11bioinspired14TemplateBufferIfE11getNBpixelsEv(ptr noundef nonnull align 8 dereferenceable(64) %0) #6 comdat align 2 {
  %2 = alloca ptr, align 8
  store ptr %0, ptr %2, align 8, !tbaa !82
  %3 = load ptr, ptr %2, align 8
  %4 = getelementptr inbounds nuw %"class.cv::bioinspired::TemplateBuffer", ptr %3, i32 0, i32 5
  %5 = load i64, ptr %4, align 8, !tbaa !84
  %6 = trunc i64 %5 to i32
  ret i32 %6
}

; Function Attrs: inlinehint mustprogress nounwind uwtable
define linkonce_odr hidden noundef nonnull align 4 dereferenceable(4) ptr @_ZNSt8valarrayIfEixEm(ptr noundef nonnull align 8 dereferenceable(16) %0, i64 noundef %1) #6 comdat align 2 {
  %3 = alloca ptr, align 8
  %4 = alloca i64, align 8
  store ptr %0, ptr %3, align 8, !tbaa !38
  store i64 %1, ptr %4, align 8, !tbaa !39
  %5 = load ptr, ptr %3, align 8
  %6 = getelementptr inbounds nuw %"class.std::valarray", ptr %5, i32 0, i32 1
  %7 = load ptr, ptr %6, align 8, !tbaa !41
  %8 = load i64, ptr %4, align 8, !tbaa !39
  %9 = getelementptr inbounds nuw float, ptr %7, i64 %8
  ret ptr %9
}

; Function Attrs: inlinehint mustprogress nounwind uwtable
define linkonce_odr hidden noundef ptr @_ZN2cv8get_dataIfEEPKT_RKSt8valarrayIS1_E(ptr noundef nonnull align 8 dereferenceable(16) %0) #6 comdat {
  %2 = alloca ptr, align 8
  store ptr %0, ptr %2, align 8, !tbaa !38
  %3 = load ptr, ptr %2, align 8, !tbaa !38
  %4 = call noundef nonnull align 4 dereferenceable(4) ptr @_ZNSt8valarrayIfEixEm(ptr noundef nonnull align 8 dereferenceable(16) %3, i64 noundef 0) #3
  ret ptr %4
}

; Function Attrs: inlinehint mustprogress nounwind uwtable
define linkonce_odr hidden noundef nonnull align 8 dereferenceable(16) ptr @_ZNK2cv11bioinspired17BasicRetinaFilter9getOutputEv(ptr noundef nonnull align 8 dereferenceable(168) %0) #6 comdat align 2 {
  %2 = alloca ptr, align 8
  store ptr %0, ptr %2, align 8, !tbaa !56
  %3 = load ptr, ptr %2, align 8
  %4 = getelementptr inbounds nuw %"class.cv::bioinspired::BasicRetinaFilter", ptr %3, i32 0, i32 0
  %5 = getelementptr inbounds i8, ptr %4, i64 8
  ret ptr %5
}

; Function Attrs: inlinehint mustprogress uwtable
define linkonce_odr hidden noundef i32 @_ZN2cv11bioinspired17BasicRetinaFilter11getNBpixelsEv(ptr noundef nonnull align 8 dereferenceable(168) %0) #5 comdat align 2 {
  %2 = alloca ptr, align 8
  store ptr %0, ptr %2, align 8, !tbaa !56
  %3 = load ptr, ptr %2, align 8
  %4 = getelementptr inbounds nuw %"class.cv::bioinspired::BasicRetinaFilter", ptr %3, i32 0, i32 0
  %5 = call noundef i32 @_ZN2cv11bioinspired14TemplateBufferIfE11getNBpixelsEv(ptr noundef nonnull align 8 dereferenceable(64) %4)
  ret i32 %5
}

; Function Attrs: inlinehint mustprogress nounwind uwtable
define linkonce_odr hidden noundef i64 @_ZNKSt8valarrayIfE4sizeEv(ptr noundef nonnull align 8 dereferenceable(16) %0) #6 comdat align 2 {
  %2 = alloca ptr, align 8
  store ptr %0, ptr %2, align 8, !tbaa !38
  %3 = load ptr, ptr %2, align 8
  %4 = getelementptr inbounds nuw %"class.std::valarray", ptr %3, i32 0, i32 0
  %5 = load i64, ptr %4, align 8, !tbaa !40
  ret i64 %5
}

; Function Attrs: mustprogress uwtable
define hidden noundef zeroext i1 @_ZN2cv11bioinspired12RetinaFilter25getMagnoParaFoveaResponseERSt8valarrayIfE(ptr noundef nonnull align 8 dereferenceable(1217) %0, ptr noundef nonnull align 8 dereferenceable(16) %1) #4 align 2 {
  %3 = alloca i1, align 1
  %4 = alloca ptr, align 8
  %5 = alloca ptr, align 8
  %6 = alloca ptr, align 8
  %7 = alloca ptr, align 8
  %8 = alloca ptr, align 8
  %9 = alloca i32, align 4
  store ptr %0, ptr %4, align 8, !tbaa !3
  store ptr %1, ptr %5, align 8, !tbaa !38
  %10 = load ptr, ptr %4, align 8
  %11 = getelementptr inbounds nuw %"class.cv::bioinspired::RetinaFilter", ptr %10, i32 0, i32 1
  %12 = load i8, ptr %11, align 1, !tbaa !35, !range !14, !noundef !15
  %13 = trunc i8 %12 to i1
  br i1 %13, label %15, label %14

14:                                               ; preds = %2
  store i1 false, ptr %3, align 1
  br label %55

15:                                               ; preds = %2
  %16 = load ptr, ptr %5, align 8, !tbaa !38
  %17 = call noundef i64 @_ZNKSt8valarrayIfE4sizeEv(ptr noundef nonnull align 8 dereferenceable(16) %16)
  %18 = getelementptr inbounds nuw %"class.cv::bioinspired::RetinaFilter", ptr %10, i32 0, i32 10
  %19 = getelementptr inbounds i8, ptr %18, i64 8
  %20 = call noundef i32 @_ZN2cv11bioinspired17BasicRetinaFilter11getNBpixelsEv(ptr noundef nonnull align 8 dereferenceable(168) %19)
  %21 = zext i32 %20 to i64
  %22 = icmp ne i64 %17, %21
  br i1 %22, label %23, label %24

23:                                               ; preds = %15
  store i1 false, ptr %3, align 1
  br label %55

24:                                               ; preds = %15
  call void @llvm.lifetime.start.p0(i64 8, ptr %6) #3
  %25 = getelementptr inbounds nuw %"class.cv::bioinspired::RetinaFilter", ptr %10, i32 0, i32 10
  %26 = getelementptr inbounds i8, ptr %25, i64 8
  %27 = call noundef nonnull align 8 dereferenceable(16) ptr @_ZNK2cv11bioinspired17BasicRetinaFilter9getOutputEv(ptr noundef nonnull align 8 dereferenceable(168) %26)
  %28 = call noundef ptr @_ZN2cv8get_dataIfEEPKT_RKSt8valarrayIS1_E(ptr noundef nonnull align 8 dereferenceable(16) %27)
  store ptr %28, ptr %6, align 8, !tbaa !47
  call void @llvm.lifetime.start.p0(i64 8, ptr %7) #3
  %29 = load ptr, ptr %5, align 8, !tbaa !38
  %30 = call noundef nonnull align 4 dereferenceable(4) ptr @_ZNSt8valarrayIfEixEm(ptr noundef nonnull align 8 dereferenceable(16) %29, i64 noundef 0) #3
  store ptr %30, ptr %7, align 8, !tbaa !47
  call void @llvm.lifetime.start.p0(i64 8, ptr %8) #3
  %31 = getelementptr inbounds nuw %"class.cv::bioinspired::RetinaFilter", ptr %10, i32 0, i32 7
  %32 = call noundef nonnull align 4 dereferenceable(4) ptr @_ZNSt8valarrayIfEixEm(ptr noundef nonnull align 8 dereferenceable(16) %31, i64 noundef 0) #3
  %33 = getelementptr inbounds float, ptr %32, i64 1
  store ptr %33, ptr %8, align 8, !tbaa !47
  call void @llvm.lifetime.start.p0(i64 4, ptr %9) #3
  store i32 0, ptr %9, align 4, !tbaa !8
  br label %34

34:                                               ; preds = %49, %24
  %35 = load i32, ptr %9, align 4, !tbaa !8
  %36 = getelementptr inbounds nuw %"class.cv::bioinspired::RetinaFilter", ptr %10, i32 0, i32 8
  %37 = call noundef i32 @_ZN2cv11bioinspired17BasicRetinaFilter11getNBpixelsEv(ptr noundef nonnull align 8 dereferenceable(168) %36)
  %38 = icmp ult i32 %35, %37
  br i1 %38, label %40, label %39

39:                                               ; preds = %34
  call void @llvm.lifetime.end.p0(i64 4, ptr %9) #3
  br label %54

40:                                               ; preds = %34
  %41 = load ptr, ptr %6, align 8, !tbaa !47
  %42 = getelementptr inbounds nuw float, ptr %41, i32 1
  store ptr %42, ptr %6, align 8, !tbaa !47
  %43 = load float, ptr %41, align 4, !tbaa !48
  %44 = load ptr, ptr %8, align 8, !tbaa !47
  %45 = load float, ptr %44, align 4, !tbaa !48
  %46 = fmul float %43, %45
  %47 = load ptr, ptr %7, align 8, !tbaa !47
  %48 = getelementptr inbounds nuw float, ptr %47, i32 1
  store ptr %48, ptr %7, align 8, !tbaa !47
  store float %46, ptr %47, align 4, !tbaa !48
  br label %49

49:                                               ; preds = %40
  %50 = load i32, ptr %9, align 4, !tbaa !8
  %51 = add i32 %50, 1
  store i32 %51, ptr %9, align 4, !tbaa !8
  %52 = load ptr, ptr %8, align 8, !tbaa !47
  %53 = getelementptr inbounds float, ptr %52, i64 2
  store ptr %53, ptr %8, align 8, !tbaa !47
  br label %34, !llvm.loop !81

54:                                               ; preds = %39
  store i1 true, ptr %3, align 1
  call void @llvm.lifetime.end.p0(i64 8, ptr %8) #3
  call void @llvm.lifetime.end.p0(i64 8, ptr %7) #3
  call void @llvm.lifetime.end.p0(i64 8, ptr %6) #3
  br label %55

55:                                               ; preds = %54, %23, %14
  %56 = load i1, ptr %3, align 1
  ret i1 %56
}