; Function Attrs: mustprogress nofree norecurse nosync nounwind memory(readwrite, inaccessiblemem: none) uwtable
define hidden noundef zeroext i1 @_ZN2cv11bioinspired12RetinaFilter25getMagnoParaFoveaResponseERSt8valarrayIfE(ptr noundef nonnull readonly align 8 captures(none) dereferenceable(1217) %0, ptr noundef nonnull readonly align 8 captures(none) dereferenceable(16) %1) local_unnamed_addr #11 align 2 {
  %3 = getelementptr inbounds nuw i8, ptr %0, i64 1
  %4 = load i8, ptr %3, align 1, !tbaa !50, !range !93, !noundef !94
  %5 = trunc nuw i8 %4 to i1
  br i1 %5, label %6, label %.loopexit

6:                                                ; preds = %2
  %7 = load i64, ptr %1, align 8, !tbaa !3
  %8 = getelementptr inbounds nuw i8, ptr %0, i64 576
  %9 = load i64, ptr %8, align 8, !tbaa !68
  %10 = and i64 %9, 4294967295
  %.not = icmp eq i64 %7, %10
  br i1 %.not, label %11, label %.loopexit

11:                                               ; preds = %6
  %12 = getelementptr inbounds nuw i8, ptr %0, i64 96
  %13 = load i64, ptr %12, align 8, !tbaa !68
  %14 = trunc i64 %13 to i32
  %.not17 = icmp eq i32 %14, 0
  br i1 %.not17, label %.loopexit, label %.lr.ph.preheader

.lr.ph.preheader:                                 ; preds = %11
  %15 = getelementptr inbounds nuw i8, ptr %0, i64 40
  %16 = load ptr, ptr %15, align 8, !tbaa !10
  %17 = getelementptr inbounds nuw i8, ptr %16, i64 4
  %18 = getelementptr inbounds nuw i8, ptr %1, i64 8
  %19 = load ptr, ptr %18, align 8, !tbaa !10
  %20 = getelementptr inbounds nuw i8, ptr %0, i64 544
  %21 = load ptr, ptr %20, align 8, !tbaa !10
  br label %.lr.ph

.lr.ph:                                           ; preds = %.lr.ph.preheader, %.lr.ph
  %.016 = phi i32 [ %27, %.lr.ph ], [ 0, %.lr.ph.preheader ]
  %.0915 = phi ptr [ %28, %.lr.ph ], [ %17, %.lr.ph.preheader ]
  %.01014 = phi ptr [ %26, %.lr.ph ], [ %19, %.lr.ph.preheader ]
  %.01113 = phi ptr [ %22, %.lr.ph ], [ %21, %.lr.ph.preheader ]
  %22 = getelementptr inbounds nuw i8, ptr %.01113, i64 4
  %23 = load float, ptr %.01113, align 4, !tbaa !61
  %24 = load float, ptr %.0915, align 4, !tbaa !61
  %25 = fmul float %23, %24
  %26 = getelementptr inbounds nuw i8, ptr %.01014, i64 4
  store float %25, ptr %.01014, align 4, !tbaa !61
  %27 = add nuw i32 %.016, 1
  %28 = getelementptr inbounds nuw i8, ptr %.0915, i64 8
  %exitcond.not = icmp eq i32 %27, %14
  br i1 %exitcond.not, label %.loopexit, label %.lr.ph, !llvm.loop !115

.loopexit:                                        ; preds = %.lr.ph, %11, %6, %2
  %.012 = phi i1 [ false, %2 ], [ false, %6 ], [ true, %11 ], [ true, %.lr.ph ]
  ret i1 %.012
}